; Function Attrs: mustprogress nofree norecurse nosync nounwind willreturn memory(argmem: readwrite) uwtable
define hidden range(i32 -1, 1) i32 @mbedtls_mps_reader_commit(ptr noundef captures(none) %0) local_unnamed_addr #3 {
  %.val = load ptr, ptr %0, align 8, !tbaa !11
  %.not4 = icmp eq ptr %.val, null
  br i1 %.not4, label %6, label %2

2:                                                ; preds = %1
  %3 = getelementptr inbounds nuw i8, ptr %0, i64 24
  %4 = load i64, ptr %3, align 8, !tbaa !15
  %5 = getelementptr inbounds nuw i8, ptr %0, i64 16
  store i64 %4, ptr %5, align 8, !tbaa !19
  br label %6

6:                                                ; preds = %1, %2
  %.0 = phi i32 [ 0, %2 ], [ -1, %1 ]
  ret i32 %.0
}